; Function Attrs: mustprogress uwtable
define void @_ZN13sentencepiece26ImmutableSentencePieceTextC2Ev(ptr nocapture noundef nonnull writeonly align 8 dereferenceable(32) %0) unnamed_addr #3 align 2 {
  store ptr getelementptr inbounds inrange(-16, 16) (i8, ptr @_ZTVN13sentencepiece26ImmutableSentencePieceTextE, i64 16), ptr %0, align 8
  %2 = getelementptr inbounds i8, ptr %0, i64 8
  %3 = tail call noundef nonnull align 8 dereferenceable(88) ptr @_ZN13sentencepiece17SentencePieceText16default_instanceEv()
  store ptr %3, ptr %2, align 8
  %4 = getelementptr inbounds i8, ptr %0, i64 16
  tail call void @llvm.memset.p0.i64(ptr noundef nonnull align 8 dereferenceable(16) %4, i8 0, i64 16, i1 false)
  ret void
}